	.file	"cmov_test.cpp"
	.text
	.globl	_Z4cmovhjj
	.type	_Z4cmovhjj, @function
_Z4cmovhjj:
.LFB15:
	.cfi_startproc
	pushq	%rbp
	.cfi_def_cfa_offset 16
	.cfi_offset 6, -16
	movq	%rsp, %rbp
	.cfi_def_cfa_register 6
	movl	%edi, %eax
	movl	%esi, -24(%rbp)
	movl	%edx, -28(%rbp)
	movb	%al, -20(%rbp)
	movzbl	-20(%rbp), %edx
	movl	-24(%rbp), %ecx
	movl	-28(%rbp), %esi
#APP
# 17 "cmov_test.cpp" 1
	mov %ecx, %eax;
	test %dl, %dl;
	cmovz %esi, %eax;
	test %ecx, %ecx;
# 0 "" 2
#NO_APP
	movl	%eax, -4(%rbp)
	movl	-4(%rbp), %eax
	popq	%rbp
	.cfi_def_cfa 7, 8
	ret
	.cfi_endproc
.LFE15:
	.size	_Z4cmovhjj, .-_Z4cmovhjj
	.section	.rodata
.LC0:
	.string	"result: %i"
	.text
	.globl	main
	.type	main, @function
main:
.LFB16:
	.cfi_startproc
	pushq	%rbp
	.cfi_def_cfa_offset 16
	.cfi_offset 6, -16
	movq	%rsp, %rbp
	.cfi_def_cfa_register 6
	subq	$32, %rsp
	movl	%edi, -20(%rbp)
	movq	%rsi, -32(%rbp)
	movq	-32(%rbp), %rax
	addq	$8, %rax
	movq	(%rax), %rax
	movq	%rax, %rdi
	call	atoi@PLT
	movb	%al, -1(%rbp)
	movq	-32(%rbp), %rax
	addq	$16, %rax
	movq	(%rax), %rax
	movq	%rax, %rdi
	call	atoi@PLT
	movl	%eax, -8(%rbp)
	movq	-32(%rbp), %rax
	addq	$24, %rax
	movq	(%rax), %rax
	movq	%rax, %rdi
	call	atoi@PLT
	movl	%eax, -12(%rbp)
	movzbl	-1(%rbp), %eax
	movl	-8(%rbp), %edx
	movl	-12(%rbp), %ecx
	movl	%ecx, %esi
	movl	%eax, %edi
	call	_Z4cmovhjj
	movl	%eax, -16(%rbp)
	movl	-16(%rbp), %eax
	movl	%eax, %esi
	leaq	.LC0(%rip), %rdi
	movl	$0, %eax
	call	printf@PLT
	movl	$0, %eax
	leave
	.cfi_def_cfa 7, 8
	ret
	.cfi_endproc
.LFE16:
	.size	main, .-main
	.ident	"GCC: (Debian 8.3.0-6) 8.3.0"
	.section	.note.GNU-stack,"",@progbits
